; Function Attrs: mustprogress uwtable
define hidden noundef ptr @_ZN19OpenColorIO_v2_5dev21LooksResultColorSpaceERKNS_6ConfigERKSt10shared_ptrIKNS_7ContextEERKNS_15LookParseResultE(ptr noundef nonnull align 8 dereferenceable(8) %0, ptr noundef nonnull align 8 dereferenceable(16) %1, ptr noundef nonnull align 8 dereferenceable(24) %2) local_unnamed_addr #0 personality ptr @__gxx_personality_v0 {
  %4 = alloca %"class.std::shared_ptr.7", align 8
  %5 = alloca %"class.OpenColorIO_v2_5dev::OpRcPtrVec", align 8
  %6 = tail call noundef zeroext i1 @_ZNK19OpenColorIO_v2_5dev15LookParseResult5emptyEv(ptr noundef nonnull align 8 dereferenceable(24) %2)
  br i1 %6, label %42, label %7

7:                                                ; preds = %3
  call void @llvm.lifetime.start.p0(i64 16, ptr nonnull %4) #23
  call void @llvm.memset.p0.i64(ptr noundef nonnull align 8 dereferenceable(16) %4, i8 0, i64 16, i1 false)
  call void @llvm.lifetime.start.p0(i64 144, ptr nonnull %5) #23
  invoke void @_ZN19OpenColorIO_v2_5dev10OpRcPtrVecC1Ev(ptr noundef nonnull align 8 dereferenceable(144) %5)
          to label %8 unwind label %13

8:                                                ; preds = %7
  invoke void @_ZN19OpenColorIO_v2_5dev12BuildLookOpsERNS_10OpRcPtrVecERSt10shared_ptrIKNS_10ColorSpaceEEbRKNS_6ConfigERKS2_IKNS_7ContextEERKNS_15LookParseResultE(ptr noundef nonnull align 8 dereferenceable(144) %5, ptr noundef nonnull align 8 dereferenceable(16) %4, i1 noundef zeroext false, ptr noundef nonnull align 8 dereferenceable(8) %0, ptr noundef nonnull align 8 dereferenceable(16) %1, ptr noundef nonnull align 8 dereferenceable(24) %2)
          to label %9 unwind label %15

9:                                                ; preds = %8
  %10 = load ptr, ptr %4, align 8, !tbaa !46
  %.not = icmp eq ptr %10, null
  br i1 %.not, label %17, label %11

11:                                               ; preds = %9
  %12 = call noundef ptr @_ZNK19OpenColorIO_v2_5dev10ColorSpace7getNameEv(ptr noundef nonnull align 8 dereferenceable(8) %10) #23
  br label %17

13:                                               ; preds = %7
  %14 = landingpad { ptr, i32 }
          cleanup
  br label %41

15:                                               ; preds = %8
  %16 = landingpad { ptr, i32 }
          cleanup
  call void @_ZN19OpenColorIO_v2_5dev10OpRcPtrVecD2Ev(ptr noundef nonnull align 8 dereferenceable(144) %5) #23
  br label %41

17:                                               ; preds = %9, %11
  %.09 = phi ptr [ %12, %11 ], [ undef, %9 ]
  call void @_ZN19OpenColorIO_v2_5dev10OpRcPtrVecD2Ev(ptr noundef nonnull align 8 dereferenceable(144) %5) #23
  call void @llvm.lifetime.end.p0(i64 144, ptr nonnull %5) #23
  %18 = getelementptr inbounds nuw i8, ptr %4, i64 8
  %19 = load ptr, ptr %18, align 8, !tbaa !11
  %.not.i.i = icmp eq ptr %19, null
  br i1 %.not.i.i, label %_ZNSt12__shared_ptrIKN19OpenColorIO_v2_5dev10ColorSpaceELN9__gnu_cxx12_Lock_policyE2EED2Ev.exit, label %20

20:                                               ; preds = %17
  %21 = getelementptr inbounds nuw i8, ptr %19, i64 8
  %22 = load atomic i64, ptr %21 acquire, align 8
  %23 = icmp eq i64 %22, 4294967297
  %24 = trunc i64 %22 to i32
  br i1 %23, label %25, label %33

25:                                               ; preds = %20
  store i32 0, ptr %21, align 8, !tbaa !14
  %26 = getelementptr inbounds nuw i8, ptr %19, i64 12
  store i32 0, ptr %26, align 4, !tbaa !17
  %27 = load ptr, ptr %19, align 8, !tbaa !12
  %28 = getelementptr inbounds nuw i8, ptr %27, i64 16
  %29 = load ptr, ptr %28, align 8
  call void %29(ptr noundef nonnull align 8 dereferenceable(16) %19) #23
  %30 = load ptr, ptr %19, align 8, !tbaa !12
  %31 = getelementptr inbounds nuw i8, ptr %30, i64 24
  %32 = load ptr, ptr %31, align 8
  call void %32(ptr noundef nonnull align 8 dereferenceable(16) %19) #23
  br label %_ZNSt12__shared_ptrIKN19OpenColorIO_v2_5dev10ColorSpaceELN9__gnu_cxx12_Lock_policyE2EED2Ev.exit

33:                                               ; preds = %20
  %34 = load i8, ptr @__libc_single_threaded, align 1, !tbaa !33
  %.not.i.i.i = icmp eq i8 %34, 0
  br i1 %.not.i.i.i, label %37, label %35

35:                                               ; preds = %33
  %36 = add nsw i32 %24, -1
  store i32 %36, ptr %21, align 4, !tbaa !43
  br label %_ZN9__gnu_cxx27__exchange_and_add_dispatchEPii.exit.i.i.i

37:                                               ; preds = %33
  %38 = atomicrmw volatile add ptr %21, i32 -1 acq_rel, align 4
  br label %_ZN9__gnu_cxx27__exchange_and_add_dispatchEPii.exit.i.i.i

_ZN9__gnu_cxx27__exchange_and_add_dispatchEPii.exit.i.i.i: ; preds = %37, %35
  %.0.i.i.i.i = phi i32 [ %24, %35 ], [ %38, %37 ]
  %39 = icmp eq i32 %.0.i.i.i.i, 1
  br i1 %39, label %40, label %_ZNSt12__shared_ptrIKN19OpenColorIO_v2_5dev10ColorSpaceELN9__gnu_cxx12_Lock_policyE2EED2Ev.exit, !prof !44

40:                                               ; preds = %_ZN9__gnu_cxx27__exchange_and_add_dispatchEPii.exit.i.i.i
  call void @_ZNSt16_Sp_counted_baseILN9__gnu_cxx12_Lock_policyE2EE24_M_release_last_use_coldEv(ptr noundef nonnull align 8 dereferenceable(16) %19) #23
  br label %_ZNSt12__shared_ptrIKN19OpenColorIO_v2_5dev10ColorSpaceELN9__gnu_cxx12_Lock_policyE2EED2Ev.exit

_ZNSt12__shared_ptrIKN19OpenColorIO_v2_5dev10ColorSpaceELN9__gnu_cxx12_Lock_policyE2EED2Ev.exit: ; preds = %17, %25, %_ZN9__gnu_cxx27__exchange_and_add_dispatchEPii.exit.i.i.i, %40
  call void @llvm.lifetime.end.p0(i64 16, ptr nonnull %4) #23
  br i1 %.not, label %42, label %43

41:                                               ; preds = %15, %13
  %.pn = phi { ptr, i32 } [ %16, %15 ], [ %14, %13 ]
  call void @llvm.lifetime.end.p0(i64 144, ptr nonnull %5) #23
  call void @_ZNSt12__shared_ptrIKN19OpenColorIO_v2_5dev10ColorSpaceELN9__gnu_cxx12_Lock_policyE2EED2Ev(ptr noundef nonnull align 8 dereferenceable(16) %4) #23
  call void @llvm.lifetime.end.p0(i64 16, ptr nonnull %4) #23
  resume { ptr, i32 } %.pn

42:                                               ; preds = %_ZNSt12__shared_ptrIKN19OpenColorIO_v2_5dev10ColorSpaceELN9__gnu_cxx12_Lock_policyE2EED2Ev.exit, %3
  br label %43

43:                                               ; preds = %_ZNSt12__shared_ptrIKN19OpenColorIO_v2_5dev10ColorSpaceELN9__gnu_cxx12_Lock_policyE2EED2Ev.exit, %42
  %.1 = phi ptr [ @.str.3, %42 ], [ %.09, %_ZNSt12__shared_ptrIKN19OpenColorIO_v2_5dev10ColorSpaceELN9__gnu_cxx12_Lock_policyE2EED2Ev.exit ]
  ret ptr %.1
}